Certificate:
    Data:
        Version: 3 (0x2)
        Serial Number: 1 (0x1)
    Signature Algorithm: sha256WithRSAEncryption
        Issuer: CN=localhost
        Validity
            Not Before: Mar  2 21:48:15 2017 GMT
            Not After : Feb 28 21:48:15 2027 GMT
        Subject: CN=localhost
        Subject Public Key Info:
            Public Key Algorithm: rsaEncryption
                Public-Key: (2048 bit)
                Modulus:
                    00:c3:37:e5:c0:10:b6:9f:5a:8f:f3:02:ca:86:b5:
                    da:75:4a:8a:e9:b0:53:58:4e:b4:7b:89:36:3c:58:
                    71:f1:dc:9b:53:d6:d6:ee:14:31:97:6a:61:33:02:
                    d4:73:bb:e6:5d:af:a2:df:ea:41:25:85:04:49:d0:
                    b9:3f:aa:c9:91:6a:7c:72:8c:c1:62:15:5d:8d:84:
                    6d:3d:74:2b:9f:ca:91:c0:55:ab:dc:f6:4e:58:fa:
                    e3:c1:49:15:aa:56:b2:c8:aa:8f:e1:4e:5f:e2:57:
                    89:29:0e:ce:ee:4d:ac:b1:be:65:b0:a5:a0:91:fc:
                    e5:c9:d0:8c:2e:e6:55:4f:12:25:75:50:8c:ce:01:
                    d4:36:13:ae:f6:97:96:cf:4b:96:d1:fd:ff:d7:9b:
                    c1:a3:19:18:00:82:40:41:c8:ac:fc:c9:8b:1f:9d:
                    af:13:24:d1:8a:2e:04:bd:a6:c5:b4:79:fe:76:4c:
                    f1:96:af:db:21:54:ac:8b:b5:91:c5:d4:c3:ab:83:
                    d9:61:59:19:74:f7:02:74:c0:1a:cd:46:8c:4b:3b:
                    7f:02:c9:8a:a8:8e:a8:5f:0c:6c:3f:db:f8:50:47:
                    5f:46:0d:70:49:04:58:3c:2d:3b:b9:9a:11:7b:67:
                    e3:e1:09:55:d5:f6:28:5c:3b:80:6e:1f:31:75:21:
                    c2:07
                Exponent: 65537 (0x10001)
        X509v3 extensions:
            X509v3 Basic Constraints: 
                CA:FALSE
            X509v3 Subject Key Identifier: 
                B7:5C:36:9F:67:50:AF:2A:D1:20:B1:4A:77:9F:12:AA:EC:1C:0B:AE
            X509v3 Authority Key Identifier: 
                keyid:37:07:D4:AB:7D:BA:E5:A0:9F:92:FE:97:B6:59:76:54:30:4F:38:88
                DirName:/CN=localhost
                serial:DA:EE:5D:AF:EC:8C:55:A5

            X509v3 Extended Key Usage: 
                TLS Web Server Authentication
            X509v3 Key Usage: 
                Digital Signature, Key Encipherment
    Signature Algorithm: sha256WithRSAEncryption
         30:d2:5c:f6:ff:94:e7:32:53:24:5b:e4:6d:40:67:66:94:f5:
         79:22:53:7f:f0:24:b7:d6:94:33:fb:c8:08:1b:c1:3b:c9:b4:
         43:79:65:49:c5:ab:90:e7:85:a3:d2:08:6f:e6:49:30:2d:5b:
         78:9a:7c:bd:3f:60:13:6c:e6:45:08:76:de:36:8a:c3:74:87:
         30:b6:cb:9e:ca:81:fd:d6:34:94:1a:af:a4:57:c5:01:90:f1:
         13:89:98:8c:fd:f6:1e:04:ab:dd:0a:16:4f:bf:43:7b:c3:df:
         44:60:07:36:55:6a:9e:bc:45:36:0e:91:c7:14:20:9c:92:ea:
         31:63:f2:60:4d:2c:6c:34:b7:8e:84:de:c0:8e:02:06:51:d4:
         13:e5:0c:e5:6c:d0:da:8d:a9:86:c7:6b:98:6c:f3:1e:a1:90:
         3c:4b:79:25:b7:69:84:98:e0:26:e0:95:60:4b:61:04:d2:36:
         8d:17:f3:5a:5d:12:e6:ad:e8:0e:5d:b1:80:c4:2f:49:d3:58:
         8e:23:a0:b8:c3:9d:6e:e4:39:4b:99:68:4a:79:a8:99:90:b0:
         36:e0:7b:9c:6a:37:47:54:43:f5:13:ab:92:b7:57:6c:3f:92:
         dd:42:00:a6:6e:eb:82:34:fb:68:d7:e1:4a:19:3e:3c:84:ad:
         b7:54:b1:0f
-----BEGIN CERTIFICATE-----
MIIDOTCCAiGgAwIBAgIBATANBgkqhkiG9w0BAQsFADAUMRIwEAYDVQQDDAlsb2Nh
bGhvc3QwHhcNMTcwMzAyMjE0ODE1WhcNMjcwMjI4MjE0ODE1WjAUMRIwEAYDVQQD
DAlsb2NhbGhvc3QwggEiMA0GCSqGSIb3DQEBAQUAA4IBDwAwggEKAoIBAQDDN+XA
ELafWo/zAsqGtdp1SorpsFNYTrR7iTY8WHHx3JtT1tbuFDGXamEzAtRzu+Zdr6Lf
6kElhQRJ0Lk/qsmRanxyjMFiFV2NhG09dCufypHAVavc9k5Y+uPBSRWqVrLIqo/h
Tl/iV4kpDs7uTayxvmWwpaCR/OXJ0Iwu5lVPEiV1UIzOAdQ2E672l5bPS5bR/f/X
m8GjGRgAgkBByKz8yYsfna8TJNGKLgS9psW0ef52TPGWr9shVKyLtZHF1MOrg9lh
WRl09wJ0wBrNRoxLO38CyYqojqhfDGw/2/hQR19GDXBJBFg8LTu5mhF7Z+PhCVXV
9ihcO4BuHzF1IcIHAgMBAAGjgZUwgZIwCQYDVR0TBAIwADAdBgNVHQ4EFgQUt1w2
n2dQryrRILFKd58SquwcC64wRAYDVR0jBD0wO4AUNwfUq3265aCfkv6Xtll2VDBP
OIihGKQWMBQxEjAQBgNVBAMMCWxvY2FsaG9zdIIJANruXa/sjFWlMBMGA1UdJQQM
MAoGCCsGAQUFBwMBMAsGA1UdDwQEAwIFoDANBgkqhkiG9w0BAQsFAAOCAQEAMNJc
9v+U5zJTJFvkbUBnZpT1eSJTf/Akt9aUM/vICBvBO8m0Q3llScWrkOeFo9IIb+ZJ
MC1beJp8vT9gE2zmRQh23jaKw3SHMLbLnsqB/dY0lBqvpFfFAZDxE4mYjP32HgSr
3QoWT79De8PfRGAHNlVqnrxFNg6RxxQgnJLqMWPyYE0sbDS3joTewI4CBlHUE+UM
5WzQ2o2phsdrmGzzHqGQPEt5JbdphJjgJuCVYEthBNI2jRfzWl0S5q3oDl2xgMQv
SdNYjiOguMOdbuQ5S5loSnmomZCwNuB7nGo3R1RD9ROrkrdXbD+S3UIApm7rgjT7
aNfhShk+PIStt1SxDw==
-----END CERTIFICATE-----
